target datalayout = "e-m:e-p270:32:32-p271:32:32-p272:64:64-i64:64-i128:128-f80:128-n8:16:32:64-S128"
target triple = "x86_64-pc-linux-gnu"

%struct.KeccakWidth1600_12rounds_SpongeInstanceStruct = type { [200 x i8], i32, i32, i32 }

; Function Attrs: nounwind uwtable
define dso_local i32 @KeccakWidth1600_12rounds_SpongeAbsorb(ptr noundef %0, ptr noundef %1, i64 noundef %2) #0 {
  %4 = alloca i32, align 4
  %5 = alloca ptr, align 8
  %6 = alloca ptr, align 8
  %7 = alloca i64, align 8
  %8 = alloca i64, align 8
  %9 = alloca i64, align 8
  %10 = alloca i32, align 4
  %11 = alloca ptr, align 8
  %12 = alloca i32, align 4
  %13 = alloca i32, align 4
  store ptr %0, ptr %5, align 8
  store ptr %1, ptr %6, align 8
  store i64 %2, ptr %7, align 8
  call void @llvm.lifetime.start.p0(i64 8, ptr %8) #3
  call void @llvm.lifetime.start.p0(i64 8, ptr %9) #3
  call void @llvm.lifetime.start.p0(i64 4, ptr %10) #3
  call void @llvm.lifetime.start.p0(i64 8, ptr %11) #3
  call void @llvm.lifetime.start.p0(i64 4, ptr %12) #3
  %14 = load ptr, ptr %5, align 8
  %15 = getelementptr inbounds nuw %struct.KeccakWidth1600_12rounds_SpongeInstanceStruct, ptr %14, i32 0, i32 1
  %16 = load i32, ptr %15, align 8
  %17 = udiv i32 %16, 8
  store i32 %17, ptr %12, align 4
  %18 = load ptr, ptr %5, align 8
  %19 = getelementptr inbounds nuw %struct.KeccakWidth1600_12rounds_SpongeInstanceStruct, ptr %18, i32 0, i32 3
  %20 = load i32, ptr %19, align 8
  %21 = icmp ne i32 %20, 0
  br i1 %21, label %22, label %23

22:                                               ; preds = %3
  store i32 1, ptr %4, align 4
  store i32 1, ptr %13, align 4
  br label %148

23:                                               ; preds = %3
  store i64 0, ptr %8, align 8
  %24 = load ptr, ptr %6, align 8
  store ptr %24, ptr %11, align 8
  br label %25

25:                                               ; preds = %146, %23
  %26 = load i64, ptr %8, align 8
  %27 = load i64, ptr %7, align 8
  %28 = icmp ult i64 %26, %27
  br i1 %28, label %29, label %147

29:                                               ; preds = %25
  %30 = load ptr, ptr %5, align 8
  %31 = getelementptr inbounds nuw %struct.KeccakWidth1600_12rounds_SpongeInstanceStruct, ptr %30, i32 0, i32 2
  %32 = load i32, ptr %31, align 4
  %33 = icmp eq i32 %32, 0
  br i1 %33, label %34, label %94

34:                                               ; preds = %29
  %35 = load i64, ptr %7, align 8
  %36 = load i64, ptr %8, align 8
  %37 = load i32, ptr %12, align 4
  %38 = zext i32 %37 to i64
  %39 = add i64 %36, %38
  %40 = icmp uge i64 %35, %39
  br i1 %40, label %41, label %94

41:                                               ; preds = %34
  %42 = load i32, ptr %12, align 4
  %43 = urem i32 %42, 8
  %44 = icmp eq i32 %43, 0
  br i1 %44, label %45, label %62

45:                                               ; preds = %41
  %46 = load ptr, ptr %5, align 8
  %47 = getelementptr inbounds nuw %struct.KeccakWidth1600_12rounds_SpongeInstanceStruct, ptr %46, i32 0, i32 0
  %48 = getelementptr inbounds [200 x i8], ptr %47, i64 0, i64 0
  %49 = load i32, ptr %12, align 4
  %50 = udiv i32 %49, 8
  %51 = load ptr, ptr %11, align 8
  %52 = load i64, ptr %7, align 8
  %53 = load i64, ptr %8, align 8
  %54 = sub i64 %52, %53
  %55 = call i64 @KeccakP1600_12rounds_FastLoop_Absorb(ptr noundef %48, i32 noundef %50, ptr noundef %51, i64 noundef %54)
  store i64 %55, ptr %9, align 8
  %56 = load i64, ptr %9, align 8
  %57 = load i64, ptr %8, align 8
  %58 = add i64 %57, %56
  store i64 %58, ptr %8, align 8
  %59 = load i64, ptr %9, align 8
  %60 = load ptr, ptr %11, align 8
  %61 = getelementptr inbounds nuw i8, ptr %60, i64 %59
  store ptr %61, ptr %11, align 8
  br label %93

62:                                               ; preds = %41
  %63 = load i64, ptr %7, align 8
  %64 = load i64, ptr %8, align 8
  %65 = sub i64 %63, %64
  store i64 %65, ptr %9, align 8
  br label %66

66:                                               ; preds = %84, %62
  %67 = load i64, ptr %9, align 8
  %68 = load i32, ptr %12, align 4
  %69 = zext i32 %68 to i64
  %70 = icmp uge i64 %67, %69
  br i1 %70, label %71, label %89

71:                                               ; preds = %66
  %72 = load ptr, ptr %5, align 8
  %73 = getelementptr inbounds nuw %struct.KeccakWidth1600_12rounds_SpongeInstanceStruct, ptr %72, i32 0, i32 0
  %74 = getelementptr inbounds [200 x i8], ptr %73, i64 0, i64 0
  %75 = load ptr, ptr %11, align 8
  %76 = load i32, ptr %12, align 4
  call void @KeccakP1600_AddBytes(ptr noundef %74, ptr noundef %75, i32 noundef 0, i32 noundef %76)
  %77 = load ptr, ptr %5, align 8
  %78 = getelementptr inbounds nuw %struct.KeccakWidth1600_12rounds_SpongeInstanceStruct, ptr %77, i32 0, i32 0
  %79 = getelementptr inbounds [200 x i8], ptr %78, i64 0, i64 0
  call void @KeccakP1600_Permute_12rounds(ptr noundef %79)
  %80 = load i32, ptr %12, align 4
  %81 = load ptr, ptr %11, align 8
  %82 = zext i32 %80 to i64
  %83 = getelementptr inbounds nuw i8, ptr %81, i64 %82
  store ptr %83, ptr %11, align 8
  br label %84

84:                                               ; preds = %71
  %85 = load i32, ptr %12, align 4
  %86 = zext i32 %85 to i64
  %87 = load i64, ptr %9, align 8
  %88 = sub i64 %87, %86
  store i64 %88, ptr %9, align 8
  br label %66, !llvm.loop !18

89:                                               ; preds = %66
  %90 = load i64, ptr %7, align 8
  %91 = load i64, ptr %9, align 8
  %92 = sub i64 %90, %91
  store i64 %92, ptr %8, align 8
  br label %93

93:                                               ; preds = %89, %45
  br label %146

94:                                               ; preds = %34, %29
  %95 = load i64, ptr %7, align 8
  %96 = load i64, ptr %8, align 8
  %97 = sub i64 %95, %96
  %98 = trunc i64 %97 to i32
  store i32 %98, ptr %10, align 4
  %99 = load i32, ptr %10, align 4
  %100 = load ptr, ptr %5, align 8
  %101 = getelementptr inbounds nuw %struct.KeccakWidth1600_12rounds_SpongeInstanceStruct, ptr %100, i32 0, i32 2
  %102 = load i32, ptr %101, align 4
  %103 = add i32 %99, %102
  %104 = load i32, ptr %12, align 4
  %105 = icmp ugt i32 %103, %104
  br i1 %105, label %106, label %112

106:                                              ; preds = %94
  %107 = load i32, ptr %12, align 4
  %108 = load ptr, ptr %5, align 8
  %109 = getelementptr inbounds nuw %struct.KeccakWidth1600_12rounds_SpongeInstanceStruct, ptr %108, i32 0, i32 2
  %110 = load i32, ptr %109, align 4
  %111 = sub i32 %107, %110
  store i32 %111, ptr %10, align 4
  br label %112

112:                                              ; preds = %106, %94
  %113 = load i32, ptr %10, align 4
  %114 = zext i32 %113 to i64
  %115 = load i64, ptr %8, align 8
  %116 = add i64 %115, %114
  store i64 %116, ptr %8, align 8
  %117 = load ptr, ptr %5, align 8
  %118 = getelementptr inbounds nuw %struct.KeccakWidth1600_12rounds_SpongeInstanceStruct, ptr %117, i32 0, i32 0
  %119 = getelementptr inbounds [200 x i8], ptr %118, i64 0, i64 0
  %120 = load ptr, ptr %11, align 8
  %121 = load ptr, ptr %5, align 8
  %122 = getelementptr inbounds nuw %struct.KeccakWidth1600_12rounds_SpongeInstanceStruct, ptr %121, i32 0, i32 2
  %123 = load i32, ptr %122, align 4
  %124 = load i32, ptr %10, align 4
  call void @KeccakP1600_AddBytes(ptr noundef %119, ptr noundef %120, i32 noundef %123, i32 noundef %124)
  %125 = load i32, ptr %10, align 4
  %126 = load ptr, ptr %11, align 8
  %127 = zext i32 %125 to i64
  %128 = getelementptr inbounds nuw i8, ptr %126, i64 %127
  store ptr %128, ptr %11, align 8
  %129 = load i32, ptr %10, align 4
  %130 = load ptr, ptr %5, align 8
  %131 = getelementptr inbounds nuw %struct.KeccakWidth1600_12rounds_SpongeInstanceStruct, ptr %130, i32 0, i32 2
  %132 = load i32, ptr %131, align 4
  %133 = add i32 %132, %129
  store i32 %133, ptr %131, align 4
  %134 = load ptr, ptr %5, align 8
  %135 = getelementptr inbounds nuw %struct.KeccakWidth1600_12rounds_SpongeInstanceStruct, ptr %134, i32 0, i32 2
  %136 = load i32, ptr %135, align 4
  %137 = load i32, ptr %12, align 4
  %138 = icmp eq i32 %136, %137
  br i1 %138, label %139, label %145

139:                                              ; preds = %112
  %140 = load ptr, ptr %5, align 8
  %141 = getelementptr inbounds nuw %struct.KeccakWidth1600_12rounds_SpongeInstanceStruct, ptr %140, i32 0, i32 0
  %142 = getelementptr inbounds [200 x i8], ptr %141, i64 0, i64 0
  call void @KeccakP1600_Permute_12rounds(ptr noundef %142)
  %143 = load ptr, ptr %5, align 8
  %144 = getelementptr inbounds nuw %struct.KeccakWidth1600_12rounds_SpongeInstanceStruct, ptr %143, i32 0, i32 2
  store i32 0, ptr %144, align 4
  br label %145

145:                                              ; preds = %139, %112
  br label %146

146:                                              ; preds = %145, %93
  br label %25, !llvm.loop !19

147:                                              ; preds = %25
  store i32 0, ptr %4, align 4
  store i32 1, ptr %13, align 4
  br label %148

148:                                              ; preds = %147, %22
  call void @llvm.lifetime.end.p0(i64 4, ptr %12) #3
  call void @llvm.lifetime.end.p0(i64 8, ptr %11) #3
  call void @llvm.lifetime.end.p0(i64 4, ptr %10) #3
  call void @llvm.lifetime.end.p0(i64 8, ptr %9) #3
  call void @llvm.lifetime.end.p0(i64 8, ptr %8) #3
  %149 = load i32, ptr %4, align 4
  ret i32 %149
}